target datalayout = "e-m:e-p270:32:32-p271:32:32-p272:64:64-i64:64-i128:128-f80:128-n8:16:32:64-S128"
target triple = "x86_64-pc-linux-gnu"

%struct._DlsMat = type { i32, i64, i64, i64, i64, i64, i64, ptr, i64, ptr }

; Function Attrs: nounwind uwtable
define i32 @DenseGEQRF(ptr noundef %0, ptr noundef %1, ptr noundef %2) #0 {
  %4 = alloca ptr, align 8
  %5 = alloca ptr, align 8
  %6 = alloca ptr, align 8
  store ptr %0, ptr %4, align 8, !tbaa !3
  store ptr %1, ptr %5, align 8, !tbaa !20
  store ptr %2, ptr %6, align 8, !tbaa !20
  %7 = load ptr, ptr %4, align 8, !tbaa !3
  %8 = getelementptr inbounds nuw %struct._DlsMat, ptr %7, i32 0, i32 9
  %9 = load ptr, ptr %8, align 8, !tbaa !10
  %10 = load ptr, ptr %4, align 8, !tbaa !3
  %11 = getelementptr inbounds nuw %struct._DlsMat, ptr %10, i32 0, i32 1
  %12 = load i64, ptr %11, align 8, !tbaa !16
  %13 = load ptr, ptr %4, align 8, !tbaa !3
  %14 = getelementptr inbounds nuw %struct._DlsMat, ptr %13, i32 0, i32 2
  %15 = load i64, ptr %14, align 8, !tbaa !17
  %16 = load ptr, ptr %5, align 8, !tbaa !20
  %17 = load ptr, ptr %6, align 8, !tbaa !20
  %18 = call i32 @denseGEQRF(ptr noundef %9, i64 noundef %12, i64 noundef %15, ptr noundef %16, ptr noundef %17)
  ret i32 %18
}