; Function Attrs: nounwind uwtable
define noundef i32 @DenseGEQRF(ptr noundef readonly captures(none) %0, ptr noundef captures(none) %1, ptr noundef captures(none) %2) local_unnamed_addr #0 {
  %4 = getelementptr inbounds nuw i8, ptr %0, i64 72
  %5 = load ptr, ptr %4, align 8, !tbaa !3
  %6 = getelementptr inbounds nuw i8, ptr %0, i64 8
  %7 = load i64, ptr %6, align 8, !tbaa !12
  %8 = getelementptr inbounds nuw i8, ptr %0, i64 16
  %9 = load i64, ptr %8, align 8, !tbaa !13
  %10 = tail call i32 @denseGEQRF(ptr noundef %5, i64 noundef %7, i64 noundef %9, ptr noundef %1, ptr noundef %2)
  ret i32 0
}